Certificate:
    Data:
        Version: 1 (0x0)
        Serial Number: 59847 (0xe9c7)
    Signature Algorithm: md5WithRSAEncryption
        Issuer: C=CN, ST=Shanghai, L=Shanghai, O=Deepoon, OU=Deepoon, CN=www.deepoon.com
        Validity
            Not Before: Feb 26 10:10:39 2018 GMT
            Not After : Apr 28 02:10:40 2018 GMT
        Subject: C=CN, ST=Shanghai, L=99999999, O=44343592, OU=11000909, CN=VM2samsungexynos74208B6802A04404/emailAddress=00000000
        Subject Public Key Info:
            Public Key Algorithm: rsaEncryption
                Public-Key: (2048 bit)
                Modulus:
                    00:ce:c2:29:5e:8d:eb:54:bc:d3:64:38:ae:7c:11:
                    fe:77:e2:1d:c1:4b:97:9a:42:75:a1:69:6d:4f:ed:
                    1f:90:77:f3:f5:6a:4e:db:f9:85:97:48:96:0e:7c:
                    b8:e9:c9:03:13:65:c5:46:e1:67:9e:02:54:43:be:
                    94:d0:4d:96:b5:9b:26:1a:9e:51:be:53:de:64:09:
                    10:e4:09:50:e9:a6:69:a1:30:25:e1:30:18:bc:e5:
                    4a:56:d0:9d:49:b6:a8:bd:eb:f1:b8:20:31:ce:6a:
                    bb:ae:f0:2e:0d:67:82:21:25:f8:c9:f9:00:85:6d:
                    ab:e0:b2:82:19:83:86:ac:49:8f:b9:2a:2e:39:ef:
                    fa:6f:c3:33:78:63:36:dc:55:f2:6b:08:82:b3:cf:
                    84:dc:cb:84:88:5f:b9:4f:6f:f2:fe:cf:97:cc:48:
                    e3:3a:c5:bd:63:f9:93:6d:ca:19:2a:4f:bd:49:e9:
                    f8:55:38:53:9e:59:e3:80:a8:f1:b2:62:94:cb:91:
                    44:e6:e5:65:5b:02:4a:50:86:f8:fe:f9:2e:8b:44:
                    ae:78:d4:24:b8:b0:9d:ad:aa:04:4a:95:03:d2:1e:
                    60:35:ee:2f:a8:ae:34:33:7c:1b:0f:4a:8b:81:67:
                    2d:7b:ab:09:6c:20:80:29:89:46:c4:5b:b6:ec:58:
                    de:8f
                Exponent: 65537 (0x10001)
    Signature Algorithm: md5WithRSAEncryption
         9d:f0:a6:96:bf:fd:48:91:08:61:79:d1:91:f4:e1:1f:35:d6:
         42:2f:61:85:83:35:59:e2:8a:0d:f8:ce:06:f5:83:d2:63:69:
         9f:31:0a:68:fe:df:5f:9a:38:1a:75:ef:0c:cb:9b:1e:09:13:
         61:c7:e0:3c:6e:49:2c:15:65:9a:19:46:49:16:be:ec:d2:d6:
         d9:ad:7d:98:14:a3:1e:77:18:dc:b9:07:d0:b5:d5:18:d3:3f:
         47:d0:20:60:01:f1:8b:3e:c3:71:82:df:81:de:4d:b1:ec:bf:
         d3:d7:45:6d:dd:0d:1e:de:09:24:7d:dd:3e:6e:45:12:09:2b:
         35:9c:9b:a8:01:2b:78:01:46:e3:a2:47:a3:20:72:3c:f9:bf:
         04:ea:28:6c:3a:09:18:b6:61:fd:a3:66:c6:48:18:d7:d2:1d:
         f4:ee:1f:74:6d:aa:13:7e:68:04:be:73:56:41:26:6a:7b:e9:
         e6:f6:35:ef:d8:90:6e:1d:08:55:44:f2:52:ef:1d:c0:01:2c:
         05:ce:96:37:1b:a0:9a:f0:6d:cf:a8:3a:55:3e:54:fc:60:cc:
         d3:33:59:8b:00:89:5e:ef:ec:0c:50:3f:2c:b0:80:33:7f:c3:
         74:ed:49:8b:e5:48:1a:64:8b:c5:86:87:b5:44:b8:e9:a9:59:
         08:28:ca:05
-----BEGIN CERTIFICATE-----
MIIDhTCCAm0CAwDpxzANBgkqhkiG9w0BAQQFADBxMQswCQYDVQQGEwJDTjERMA8G
A1UECAwIU2hhbmdoYWkxETAPBgNVBAcMCFNoYW5naGFpMRAwDgYDVQQKDAdEZWVw
b29uMRAwDgYDVQQLDAdEZWVwb29uMRgwFgYDVQQDDA93d3cuZGVlcG9vbi5jb20w
HhcNMTgwMjI2MTAxMDM5WhcNMTgwNDI4MDIxMDQwWjCBnTELMAkGA1UEBhMCQ04x
ETAPBgNVBAgMCFNoYW5naGFpMREwDwYDVQQHDAg5OTk5OTk5OTERMA8GA1UECgwI
NDQzNDM1OTIxETAPBgNVBAsMCDExMDAwOTA5MSkwJwYDVQQDDCBWTTJzYW1zdW5n
ZXh5bm9zNzQyMDhCNjgwMkEwNDQwNDEXMBUGCSqGSIb3DQEJARYIMDAwMDAwMDAw
ggEiMA0GCSqGSIb3DQEBAQUAA4IBDwAwggEKAoIBAQDOwilejetUvNNkOK58Ef53
4h3BS5eaQnWhaW1P7R+Qd/P1ak7b+YWXSJYOfLjpyQMTZcVG4WeeAlRDvpTQTZa1
myYanlG+U95kCRDkCVDppmmhMCXhMBi85UpW0J1Jtqi96/G4IDHOaruu8C4NZ4Ih
JfjJ+QCFbavgsoIZg4asSY+5Ki457/pvwzN4YzbcVfJrCIKzz4Tcy4SIX7lPb/L+
z5fMSOM6xb1j+ZNtyhkqT71J6fhVOFOeWeOAqPGyYpTLkUTm5WVbAkpQhvj++S6L
RK541CS4sJ2tqgRKlQPSHmA17i+orjQzfBsPSouBZy17qwlsIIApiUbEW7bsWN6P
AgMBAAEwDQYJKoZIhvcNAQEEBQADggEBAJ3wppa//UiRCGF50ZH04R811kIvYYWD
NVniig34zgb1g9JjaZ8xCmj+31+aOBp17wzLmx4JE2HH4DxuSSwVZZoZRkkWvuzS
1tmtfZgUox53GNy5B9C11RjTP0fQIGAB8Ys+w3GC34HeTbHsv9PXRW3dDR7eCSR9
3T5uRRIJKzWcm6gBK3gBRuOiR6Mgcjz5vwTqKGw6CRi2Yf2jZsZIGNfSHfTuH3Rt
qhN+aAS+c1ZBJmp76eb2Ne/YkG4dCFVE8lLvHcABLAXOljcboJrwbc+oOlU+VPxg
zNMzWYsAiV7v7AxQPyywgDN/w3TtSYvlSBpki8WGh7VEuOmpWQgoygU=
-----END CERTIFICATE-----
